; Function Attrs: mustprogress nounwind uwtable
define internal fastcc noundef zeroext i1 @_ZL17multiplyOverflowsRKN4llvm5APIntES2_RS0_b(ptr noundef nonnull align 8 dereferenceable(12) %0, ptr noundef nonnull align 8 dereferenceable(12) %1, ptr nocapture noundef nonnull align 8 dereferenceable(12) %2, i1 noundef zeroext %3) unnamed_addr #0 {
  %5 = alloca i8, align 1
  %6 = alloca %"class.llvm::APInt", align 8
  br i1 %3, label %7, label %8

7:                                                ; preds = %4
  call void @_ZNK4llvm5APInt7smul_ovERKS0_Rb(ptr dead_on_unwind nonnull writable sret(%"class.llvm::APInt") align 8 %6, ptr noundef nonnull align 8 dereferenceable(12) %0, ptr noundef nonnull align 8 dereferenceable(12) %1, ptr noundef nonnull align 1 dereferenceable(1) %5) #15
  br label %9

8:                                                ; preds = %4
  call void @_ZNK4llvm5APInt7umul_ovERKS0_Rb(ptr dead_on_unwind nonnull writable sret(%"class.llvm::APInt") align 8 %6, ptr noundef nonnull align 8 dereferenceable(12) %0, ptr noundef nonnull align 8 dereferenceable(12) %1, ptr noundef nonnull align 1 dereferenceable(1) %5) #15
  br label %9

9:                                                ; preds = %8, %7
  %10 = getelementptr inbounds nuw i8, ptr %2, i64 8
  %11 = load i32, ptr %10, align 8
  %12 = icmp ult i32 %11, 65
  br i1 %12, label %_ZN4llvm5APIntD2Ev.exit, label %13

13:                                               ; preds = %9
  %14 = load ptr, ptr %2, align 8
  %15 = icmp eq ptr %14, null
  br i1 %15, label %_ZN4llvm5APIntD2Ev.exit, label %16

16:                                               ; preds = %13
  call void @_ZdaPv(ptr noundef nonnull %14) #16
  br label %_ZN4llvm5APIntD2Ev.exit

_ZN4llvm5APIntD2Ev.exit:                          ; preds = %16, %13, %9
  %17 = load i64, ptr %6, align 8
  store i64 %17, ptr %2, align 8
  %18 = getelementptr inbounds nuw i8, ptr %6, i64 8
  %19 = load i32, ptr %18, align 8
  store i32 %19, ptr %10, align 8
  %20 = load i8, ptr %5, align 1
  %21 = trunc i8 %20 to i1
  ret i1 %21
}